; Function Attrs: mustprogress nofree norecurse nosync nounwind willreturn memory(argmem: readwrite) uwtable
define internal noundef zeroext i1 @"_ZNSt17_Function_handlerIFvPKvRKSt8functionIFvPKN3dap8TypeInfoES1_EERKS2_IFvS6_RKNS3_5ErrorEEEEZNS3_7Session15registerHandlerIZN10cmDebugger26cmDebuggerExceptionManagerC1EPSJ_E3$_0NS3_30SetExceptionBreakpointsRequestEEENSt9enable_ifIXsr6traits14CompatibleWithIT_S2_IFvNS3_7RequestEEEEE5valueEvE4typeEOSR_EUlS1_SA_SH_E_E10_M_managerERSt9_Any_dataRKS10_St18_Manager_operation"(ptr noundef nonnull writeonly align 8 captures(none) dereferenceable(16) %0, ptr noundef nonnull align 8 dereferenceable(16) %1, i32 noundef %2) #10 align 2 personality ptr @__gxx_personality_v0 {
  switch i32 %2, label %"_ZNSt14_Function_base13_Base_managerIZN3dap7Session15registerHandlerIZN10cmDebugger26cmDebuggerExceptionManagerC1EPS2_E3$_0NS1_30SetExceptionBreakpointsRequestEEENSt9enable_ifIXsr6traits14CompatibleWithIT_St8functionIFvNS1_7RequestEEEEE5valueEvE4typeEOSA_EUlPKvRKSB_IFvPKNS1_8TypeInfoESJ_EERKSB_IFvSM_RKNS1_5ErrorEEEE_E10_M_managerERSt9_Any_dataRKS10_St18_Manager_operation.exit" [
    i32 0, label %4
    i32 1, label %5
    i32 2, label %6
  ]

4:                                                ; preds = %3
  store ptr @"_ZTIZN3dap7Session15registerHandlerIZN10cmDebugger26cmDebuggerExceptionManagerC1EPS0_E3$_0NS_30SetExceptionBreakpointsRequestEEENSt9enable_ifIXsr6traits14CompatibleWithIT_St8functionIFvNS_7RequestEEEEE5valueEvE4typeEOS8_EUlPKvRKS9_IFvPKNS_8TypeInfoESH_EERKS9_IFvSK_RKNS_5ErrorEEEE_", ptr %0, align 8, !tbaa !146
  br label %"_ZNSt14_Function_base13_Base_managerIZN3dap7Session15registerHandlerIZN10cmDebugger26cmDebuggerExceptionManagerC1EPS2_E3$_0NS1_30SetExceptionBreakpointsRequestEEENSt9enable_ifIXsr6traits14CompatibleWithIT_St8functionIFvNS1_7RequestEEEEE5valueEvE4typeEOSA_EUlPKvRKSB_IFvPKNS1_8TypeInfoESJ_EERKSB_IFvSM_RKNS1_5ErrorEEEE_E10_M_managerERSt9_Any_dataRKS10_St18_Manager_operation.exit"

5:                                                ; preds = %3
  store ptr %1, ptr %0, align 8, !tbaa !135
  br label %"_ZNSt14_Function_base13_Base_managerIZN3dap7Session15registerHandlerIZN10cmDebugger26cmDebuggerExceptionManagerC1EPS2_E3$_0NS1_30SetExceptionBreakpointsRequestEEENSt9enable_ifIXsr6traits14CompatibleWithIT_St8functionIFvNS1_7RequestEEEEE5valueEvE4typeEOSA_EUlPKvRKSB_IFvPKNS1_8TypeInfoESJ_EERKSB_IFvSM_RKNS1_5ErrorEEEE_E10_M_managerERSt9_Any_dataRKS10_St18_Manager_operation.exit"

6:                                                ; preds = %3
  %.val.i = load i64, ptr %1, align 8, !tbaa !34
  store i64 %.val.i, ptr %0, align 8, !tbaa !34
  br label %"_ZNSt14_Function_base13_Base_managerIZN3dap7Session15registerHandlerIZN10cmDebugger26cmDebuggerExceptionManagerC1EPS2_E3$_0NS1_30SetExceptionBreakpointsRequestEEENSt9enable_ifIXsr6traits14CompatibleWithIT_St8functionIFvNS1_7RequestEEEEE5valueEvE4typeEOSA_EUlPKvRKSB_IFvPKNS1_8TypeInfoESJ_EERKSB_IFvSM_RKNS1_5ErrorEEEE_E10_M_managerERSt9_Any_dataRKS10_St18_Manager_operation.exit"

"_ZNSt14_Function_base13_Base_managerIZN3dap7Session15registerHandlerIZN10cmDebugger26cmDebuggerExceptionManagerC1EPS2_E3$_0NS1_30SetExceptionBreakpointsRequestEEENSt9enable_ifIXsr6traits14CompatibleWithIT_St8functionIFvNS1_7RequestEEEEE5valueEvE4typeEOSA_EUlPKvRKSB_IFvPKNS1_8TypeInfoESJ_EERKSB_IFvSM_RKNS1_5ErrorEEEE_E10_M_managerERSt9_Any_dataRKS10_St18_Manager_operation.exit": ; preds = %3, %6, %5, %4
  ret i1 false
}